target datalayout = "e-m:e-p270:32:32-p271:32:32-p272:64:64-i64:64-i128:128-f80:128-n8:16:32:64-S128"
target triple = "x86_64-pc-linux-gnu"

; Function Attrs: mustprogress nounwind uwtable
define linkonce_odr hidden noundef zeroext i1 @_Z18isKnownV5SectionIDj(i32 noundef %0) #0 comdat {
  %2 = alloca i32, align 4
  store i32 %0, ptr %2, align 4
  %3 = load i32, ptr %2, align 4
  %4 = icmp uge i32 %3, 1
  br i1 %4, label %5, label %11

5:                                                ; preds = %1
  %6 = load i32, ptr %2, align 4
  %7 = icmp ule i32 %6, 8
  br i1 %7, label %8, label %11

8:                                                ; preds = %5
  %9 = load i32, ptr %2, align 4
  %10 = icmp ne i32 %9, 2
  br label %11

11:                                               ; preds = %8, %5, %1
  %12 = phi i1 [ false, %5 ], [ false, %1 ], [ %10, %8 ]
  ret i1 %12
}

; Function Attrs: mustprogress nounwind uwtable
define dso_local noundef i32 @_ZN4llvm22deserializeSectionKindEjj(i32 noundef %0, i32 noundef %1) #0 {
  %3 = alloca i32, align 4
  %4 = alloca i32, align 4
  %5 = alloca i32, align 4
  store i32 %0, ptr %4, align 4
  store i32 %1, ptr %5, align 4
  %6 = load i32, ptr %5, align 4
  %7 = icmp eq i32 %6, 5
  br i1 %7, label %8, label %16

8:                                                ; preds = %2
  %9 = load i32, ptr %4, align 4
  %10 = call noundef zeroext i1 @_Z18isKnownV5SectionIDj(i32 noundef %9)
  br i1 %10, label %11, label %13

11:                                               ; preds = %8
  %12 = load i32, ptr %4, align 4
  br label %14

13:                                               ; preds = %8
  br label %14

14:                                               ; preds = %13, %11
  %15 = phi i32 [ %12, %11 ], [ 0, %13 ]
  store i32 %15, ptr %3, align 4
  br label %27

16:                                               ; preds = %2
  %17 = load i32, ptr %4, align 4
  switch i32 %17, label %26 [
    i32 1, label %18
    i32 2, label %19
    i32 3, label %20
    i32 4, label %21
    i32 5, label %22
    i32 6, label %23
    i32 7, label %24
    i32 8, label %25
  ]

18:                                               ; preds = %16
  store i32 1, ptr %3, align 4
  br label %27

19:                                               ; preds = %16
  store i32 2, ptr %3, align 4
  br label %27

20:                                               ; preds = %16
  store i32 3, ptr %3, align 4
  br label %27

21:                                               ; preds = %16
  store i32 4, ptr %3, align 4
  br label %27

22:                                               ; preds = %16
  store i32 9, ptr %3, align 4
  br label %27

23:                                               ; preds = %16
  store i32 6, ptr %3, align 4
  br label %27

24:                                               ; preds = %16
  store i32 10, ptr %3, align 4
  br label %27

25:                                               ; preds = %16
  store i32 7, ptr %3, align 4
  br label %27

26:                                               ; preds = %16
  store i32 0, ptr %3, align 4
  br label %27

27:                                               ; preds = %26, %25, %24, %23, %22, %21, %20, %19, %18, %14
  %28 = load i32, ptr %3, align 4
  ret i32 %28
}