; Function Attrs: mustprogress nofree norecurse nosync nounwind willreturn memory(none) uwtable
define dso_local noundef range(i32 0, 11) i32 @_ZN4llvm22deserializeSectionKindEjj(i32 noundef %0, i32 noundef %1) local_unnamed_addr #0 {
  %3 = icmp eq i32 %1, 5
  br i1 %3, label %4, label %8

4:                                                ; preds = %2
  %5 = add i32 %0, -1
  %or.cond.i = icmp ult i32 %5, 8
  %6 = icmp ne i32 %0, 2
  %spec.select.i = and i1 %6, %or.cond.i
  %7 = select i1 %spec.select.i, i32 %0, i32 0
  br label %11

8:                                                ; preds = %2
  %switch.tableidx = add i32 %0, -1
  %9 = icmp ult i32 %switch.tableidx, 8
  br i1 %9, label %switch.lookup, label %11

switch.lookup:                                    ; preds = %8
  %10 = zext nneg i32 %switch.tableidx to i64
  %switch.gep = getelementptr inbounds nuw [8 x i32], ptr @switch.table._ZN4llvm14DWARFUnitIndex9parseImplENS_13DataExtractorE, i64 0, i64 %10
  %switch.load = load i32, ptr %switch.gep, align 4
  br label %11

11:                                               ; preds = %8, %switch.lookup, %4
  %.0 = phi i32 [ %7, %4 ], [ %switch.load, %switch.lookup ], [ 0, %8 ]
  ret i32 %.0
}